; ModuleID = 'bench/postgres/original/assert.ll'
source_filename = "bench/postgres/original/assert.ll"
target datalayout = "e-m:e-p270:32:32-p271:32:32-p272:64:64-i64:64-i128:128-f80:128-n8:16:32:64-S128"
target triple = "x86_64-pc-linux-gnu"

@.str = private unnamed_addr constant [53 x i8] c"TRAP: ExceptionalCondition: bad arguments in PID %d\0A\00", align 1
@.str.1 = private unnamed_addr constant [58 x i8] c"TRAP: failed Assert(\22%s\22), File: \22%s\22, Line: %d, PID: %d\0A\00", align 1
@stderr = external local_unnamed_addr global ptr, align 8

; Function Attrs: cold noreturn nounwind uwtable
define dso_local void @ExceptionalCondition(ptr noundef %0, ptr noundef %1, i32 noundef %2) local_unnamed_addr #0 {
  %4 = alloca [100 x ptr], align 16
  %5 = icmp ne ptr %0, null
  %6 = icmp ne ptr %1, null
  %or.cond = and i1 %5, %6
  %7 = tail call i32 @getpid() #6
  br i1 %or.cond, label %9, label %8

8:                                                ; preds = %3
  tail call void (ptr, ...) @write_stderr(ptr noundef nonnull @.str, i32 noundef %7) #6
  br label %10

9:                                                ; preds = %3
  tail call void (ptr, ...) @write_stderr(ptr noundef nonnull @.str.1, ptr noundef nonnull %0, ptr noundef nonnull %1, i32 noundef %2, i32 noundef %7) #6
  br label %10

10:                                               ; preds = %9, %8
  %11 = load ptr, ptr @stderr, align 8
  %12 = tail call i32 @fflush(ptr noundef %11)
  call void @llvm.lifetime.start.p0(i64 800, ptr nonnull %4) #6
  %13 = call i32 @backtrace(ptr noundef nonnull %4, i32 noundef 100) #6
  %14 = load ptr, ptr @stderr, align 8
  %15 = call i32 @fileno(ptr noundef %14) #6
  call void @backtrace_symbols_fd(ptr noundef nonnull %4, i32 noundef %13, i32 noundef %15) #6
  call void @llvm.lifetime.end.p0(i64 800, ptr nonnull %4) #6
  call void @abort() #7
  unreachable
}

declare void @write_stderr(ptr noundef, ...) local_unnamed_addr #1

; Function Attrs: nounwind
declare i32 @getpid() local_unnamed_addr #2

; Function Attrs: nofree nounwind
declare noundef i32 @fflush(ptr noundef captures(none)) local_unnamed_addr #3

; Function Attrs: mustprogress nocallback nofree nosync nounwind willreturn memory(argmem: readwrite)
declare void @llvm.lifetime.start.p0(i64 immarg, ptr captures(none)) #4

declare i32 @backtrace(ptr noundef, i32 noundef) local_unnamed_addr #1

; Function Attrs: nounwind
declare void @backtrace_symbols_fd(ptr noundef, i32 noundef, i32 noundef) local_unnamed_addr #2

; Function Attrs: nofree nounwind
declare noundef i32 @fileno(ptr noundef captures(none)) local_unnamed_addr #3

; Function Attrs: mustprogress nocallback nofree nosync nounwind willreturn memory(argmem: readwrite)
declare void @llvm.lifetime.end.p0(i64 immarg, ptr captures(none)) #4

; Function Attrs: cold nofree noreturn nounwind
declare void @abort() local_unnamed_addr #5


!llvm.module.flags = !{!0, !1, !2, !3}

!0 = !{i32 1, !"wchar_size", i32 4}
!1 = !{i32 8, !"PIC Level", i32 2}
!2 = !{i32 7, !"PIE Level", i32 2}
!3 = !{i32 7, !"uwtable", i32 2}
